target datalayout = "e-m:e-p270:32:32-p271:32:32-p272:64:64-i64:64-i128:128-f80:128-n8:16:32:64-S128"
target triple = "x86_64-pc-linux-gnu"

%"class.smt2::scanner" = type { ptr, i8, i32, i8, i8, i32, i32, %class.symbol, %class.rational, i32, [256 x i8], [1024 x i8], i32, i32, %class.svector, ptr, i8, %class.svector, %class.svector }
%class.symbol = type { ptr }
%class.rational = type { %class.mpq }
%class.mpq = type { %class.mpz, %class.mpz }
%class.mpz = type { i32, i8, ptr }
%class.svector = type { %class.vector }
%class.vector = type { ptr }

; Function Attrs: mustprogress uwtable
define hidden void @_ZN4smt27scanner11reset_inputERSib(ptr noundef nonnull align 8 dereferenceable(1408) %0, ptr noundef nonnull align 8 dereferenceable(16) %1, i1 noundef zeroext %2) #4 align 2 {
  %4 = alloca ptr, align 8
  %5 = alloca ptr, align 8
  %6 = alloca i8, align 1
  store ptr %0, ptr %4, align 8, !tbaa !3
  store ptr %1, ptr %5, align 8, !tbaa !52
  %7 = zext i1 %2 to i8
  store i8 %7, ptr %6, align 1, !tbaa !59
  %8 = load ptr, ptr %4, align 8
  %9 = load ptr, ptr %5, align 8, !tbaa !52
  %10 = getelementptr inbounds nuw %"class.smt2::scanner", ptr %8, i32 0, i32 15
  store ptr %9, ptr %10, align 8, !tbaa !26
  %11 = load i8, ptr %6, align 1, !tbaa !59, !range !22, !noundef !23
  %12 = trunc i8 %11 to i1
  %13 = getelementptr inbounds nuw %"class.smt2::scanner", ptr %8, i32 0, i32 1
  %14 = zext i1 %12 to i8
  store i8 %14, ptr %13, align 8, !tbaa !25
  %15 = getelementptr inbounds nuw %"class.smt2::scanner", ptr %8, i32 0, i32 4
  store i8 0, ptr %15, align 1, !tbaa !24
  %16 = getelementptr inbounds nuw %"class.smt2::scanner", ptr %8, i32 0, i32 12
  store i32 0, ptr %16, align 4, !tbaa !30
  %17 = getelementptr inbounds nuw %"class.smt2::scanner", ptr %8, i32 0, i32 13
  store i32 0, ptr %17, align 8, !tbaa !31
  call void @_ZN4smt27scanner4nextEv(ptr noundef nonnull align 8 dereferenceable(1408) %8)
  ret void
}