; Function Attrs: mustprogress uwtable
define hidden void @_ZN4smt27scanner11reset_inputERSib(ptr noundef nonnull align 8 dereferenceable(1408) initializes((8, 9), (17, 18), (1356, 1364), (1376, 1384)) %0, ptr noundef nonnull align 8 dereferenceable(16) %1, i1 noundef zeroext %2) local_unnamed_addr #3 align 2 {
  %4 = zext i1 %2 to i8
  %5 = getelementptr inbounds nuw i8, ptr %0, i64 1376
  store ptr %1, ptr %5, align 8, !tbaa !27
  %6 = getelementptr inbounds nuw i8, ptr %0, i64 8
  store i8 %4, ptr %6, align 8, !tbaa !26
  %7 = getelementptr inbounds nuw i8, ptr %0, i64 17
  store i8 0, ptr %7, align 1, !tbaa !25
  %8 = getelementptr inbounds nuw i8, ptr %0, i64 1356
  store i32 0, ptr %8, align 4, !tbaa !41
  %9 = getelementptr inbounds nuw i8, ptr %0, i64 1360
  store i32 0, ptr %9, align 8, !tbaa !42
  tail call void @_ZN4smt27scanner4nextEv(ptr noundef nonnull align 8 dereferenceable(1408) %0)
  ret void
}